target datalayout = "e-m:e-p270:32:32-p271:32:32-p272:64:64-i64:64-i128:128-f80:128-n8:16:32:64-S128"
target triple = "x86_64-pc-linux-gnu"

%struct.parser_st_hash_type = type { ptr, ptr }
%struct.parser_st_table = type { i8, i8, i8, i32, ptr, i64, ptr, i64, i64, ptr }
%struct.parser_st_table_entry = type { i64, i64, i64 }

; Function Attrs: inlinehint nounwind sspstrong uwtable
define internal i64 @get_bins_num(ptr noundef %0) #3 {
  %2 = alloca ptr, align 8
  store ptr %0, ptr %2, align 8, !tbaa !7
  %3 = load ptr, ptr %2, align 8, !tbaa !7
  %4 = getelementptr inbounds nuw %struct.parser_st_table, ptr %3, i32 0, i32 1
  %5 = load i8, ptr %4, align 1, !tbaa !25
  %6 = zext i8 %5 to i32
  %7 = zext i32 %6 to i64
  %8 = shl i64 1, %7
  ret i64 %8
}

; Function Attrs: inlinehint nounwind sspstrong uwtable
define internal i64 @bins_mask(ptr noundef %0) #3 {
  %2 = alloca ptr, align 8
  store ptr %0, ptr %2, align 8, !tbaa !7
  %3 = load ptr, ptr %2, align 8, !tbaa !7
  %4 = call i64 @get_bins_num(ptr noundef %3)
  %5 = sub i64 %4, 1
  ret i64 %5
}

; Function Attrs: inlinehint nounwind sspstrong uwtable
define internal i64 @secondary_hash(i64 noundef %0, ptr noundef %1, ptr noundef %2) #3 {
  %4 = alloca i64, align 8
  %5 = alloca ptr, align 8
  %6 = alloca ptr, align 8
  store i64 %0, ptr %4, align 8, !tbaa !14
  store ptr %1, ptr %5, align 8, !tbaa !7
  store ptr %2, ptr %6, align 8, !tbaa !35
  %7 = load ptr, ptr %6, align 8, !tbaa !35
  %8 = load i64, ptr %7, align 8, !tbaa !14
  %9 = lshr i64 %8, 11
  store i64 %9, ptr %7, align 8, !tbaa !14
  %10 = load i64, ptr %4, align 8, !tbaa !14
  %11 = shl i64 %10, 2
  %12 = load i64, ptr %4, align 8, !tbaa !14
  %13 = add i64 %11, %12
  %14 = load ptr, ptr %6, align 8, !tbaa !35
  %15 = load i64, ptr %14, align 8, !tbaa !14
  %16 = add i64 %13, %15
  %17 = add i64 %16, 1
  store i64 %17, ptr %4, align 8, !tbaa !14
  %18 = load i64, ptr %4, align 8, !tbaa !14
  %19 = load ptr, ptr %5, align 8, !tbaa !7
  %20 = call i64 @hash_bin(i64 noundef %18, ptr noundef %19)
  ret i64 %20
}

; Function Attrs: inlinehint nounwind sspstrong uwtable
define internal void @set_bin(ptr noundef %0, i32 noundef %1, i64 noundef %2, i64 noundef %3) #3 {
  %5 = alloca ptr, align 8
  %6 = alloca i32, align 4
  %7 = alloca i64, align 8
  %8 = alloca i64, align 8
  store ptr %0, ptr %5, align 8, !tbaa !35
  store i32 %1, ptr %6, align 4, !tbaa !16
  store i64 %2, ptr %7, align 8, !tbaa !14
  store i64 %3, ptr %8, align 8, !tbaa !14
  %9 = load i32, ptr %6, align 4, !tbaa !16
  %10 = icmp eq i32 %9, 0
  br i1 %10, label %11, label %17

11:                                               ; preds = %4
  %12 = load i64, ptr %8, align 8, !tbaa !14
  %13 = trunc i64 %12 to i8
  %14 = load ptr, ptr %5, align 8, !tbaa !35
  %15 = load i64, ptr %7, align 8, !tbaa !14
  %16 = getelementptr i8, ptr %14, i64 %15
  store i8 %13, ptr %16, align 1, !tbaa !46
  br label %42

17:                                               ; preds = %4
  %18 = load i32, ptr %6, align 4, !tbaa !16
  %19 = icmp eq i32 %18, 1
  br i1 %19, label %20, label %26

20:                                               ; preds = %17
  %21 = load i64, ptr %8, align 8, !tbaa !14
  %22 = trunc i64 %21 to i16
  %23 = load ptr, ptr %5, align 8, !tbaa !35
  %24 = load i64, ptr %7, align 8, !tbaa !14
  %25 = getelementptr i16, ptr %23, i64 %24
  store i16 %22, ptr %25, align 2, !tbaa !47
  br label %41

26:                                               ; preds = %17
  %27 = load i32, ptr %6, align 4, !tbaa !16
  %28 = icmp eq i32 %27, 2
  br i1 %28, label %29, label %35

29:                                               ; preds = %26
  %30 = load i64, ptr %8, align 8, !tbaa !14
  %31 = trunc i64 %30 to i32
  %32 = load ptr, ptr %5, align 8, !tbaa !35
  %33 = load i64, ptr %7, align 8, !tbaa !14
  %34 = getelementptr i32, ptr %32, i64 %33
  store i32 %31, ptr %34, align 4, !tbaa !16
  br label %40

35:                                               ; preds = %26
  %36 = load i64, ptr %8, align 8, !tbaa !14
  %37 = load ptr, ptr %5, align 8, !tbaa !35
  %38 = load i64, ptr %7, align 8, !tbaa !14
  %39 = getelementptr i64, ptr %37, i64 %38
  store i64 %36, ptr %39, align 8, !tbaa !14
  br label %40

40:                                               ; preds = %35, %29
  br label %41

41:                                               ; preds = %40, %20
  br label %42

42:                                               ; preds = %41, %11
  ret void
}

; Function Attrs: inlinehint nounwind sspstrong uwtable
define internal i64 @get_bin(ptr noundef %0, i32 noundef %1, i64 noundef %2) #3 {
  %4 = alloca ptr, align 8
  %5 = alloca i32, align 4
  %6 = alloca i64, align 8
  store ptr %0, ptr %4, align 8, !tbaa !35
  store i32 %1, ptr %5, align 4, !tbaa !16
  store i64 %2, ptr %6, align 8, !tbaa !14
  %7 = load i32, ptr %5, align 4, !tbaa !16
  %8 = icmp eq i32 %7, 0
  br i1 %8, label %9, label %15

9:                                                ; preds = %3
  %10 = load ptr, ptr %4, align 8, !tbaa !35
  %11 = load i64, ptr %6, align 8, !tbaa !14
  %12 = getelementptr i8, ptr %10, i64 %11
  %13 = load i8, ptr %12, align 1, !tbaa !46
  %14 = zext i8 %13 to i64
  br label %42

15:                                               ; preds = %3
  %16 = load i32, ptr %5, align 4, !tbaa !16
  %17 = icmp eq i32 %16, 1
  br i1 %17, label %18, label %24

18:                                               ; preds = %15
  %19 = load ptr, ptr %4, align 8, !tbaa !35
  %20 = load i64, ptr %6, align 8, !tbaa !14
  %21 = getelementptr i16, ptr %19, i64 %20
  %22 = load i16, ptr %21, align 2, !tbaa !47
  %23 = zext i16 %22 to i64
  br label %40

24:                                               ; preds = %15
  %25 = load i32, ptr %5, align 4, !tbaa !16
  %26 = icmp eq i32 %25, 2
  br i1 %26, label %27, label %33

27:                                               ; preds = %24
  %28 = load ptr, ptr %4, align 8, !tbaa !35
  %29 = load i64, ptr %6, align 8, !tbaa !14
  %30 = getelementptr i32, ptr %28, i64 %29
  %31 = load i32, ptr %30, align 4, !tbaa !16
  %32 = zext i32 %31 to i64
  br label %38

33:                                               ; preds = %24
  %34 = load ptr, ptr %4, align 8, !tbaa !35
  %35 = load i64, ptr %6, align 8, !tbaa !14
  %36 = getelementptr i64, ptr %34, i64 %35
  %37 = load i64, ptr %36, align 8, !tbaa !14
  br label %38

38:                                               ; preds = %33, %27
  %39 = phi i64 [ %32, %27 ], [ %37, %33 ]
  br label %40

40:                                               ; preds = %38, %18
  %41 = phi i64 [ %23, %18 ], [ %39, %38 ]
  br label %42

42:                                               ; preds = %40, %9
  %43 = phi i64 [ %14, %9 ], [ %41, %40 ]
  ret i64 %43
}

; Function Attrs: inlinehint nounwind sspstrong uwtable
define internal i32 @get_size_ind(ptr noundef %0) #3 {
  %2 = alloca ptr, align 8
  store ptr %0, ptr %2, align 8, !tbaa !7
  %3 = load ptr, ptr %2, align 8, !tbaa !7
  %4 = getelementptr inbounds nuw %struct.parser_st_table, ptr %3, i32 0, i32 2
  %5 = load i8, ptr %4, align 2, !tbaa !27
  %6 = zext i8 %5 to i32
  ret i32 %6
}

; Function Attrs: inlinehint nounwind sspstrong uwtable
define internal i64 @hash_bin(i64 noundef %0, ptr noundef %1) #3 {
  %3 = alloca i64, align 8
  %4 = alloca ptr, align 8
  store i64 %0, ptr %3, align 8, !tbaa !14
  store ptr %1, ptr %4, align 8, !tbaa !7
  %5 = load i64, ptr %3, align 8, !tbaa !14
  %6 = load ptr, ptr %4, align 8, !tbaa !7
  %7 = call i64 @bins_mask(ptr noundef %6)
  %8 = and i64 %5, %7
  ret i64 %8
}

; Function Attrs: nounwind sspstrong uwtable
define internal i64 @find_table_bin_ptr_and_reserve(ptr noundef %0, ptr noundef %1, i64 noundef %2, ptr noundef %3) #0 {
  %5 = alloca i64, align 8
  %6 = alloca ptr, align 8
  %7 = alloca ptr, align 8
  %8 = alloca i64, align 8
  %9 = alloca ptr, align 8
  %10 = alloca i32, align 4
  %11 = alloca i32, align 4
  %12 = alloca i64, align 8
  %13 = alloca i64, align 8
  %14 = alloca i64, align 8
  %15 = alloca i64, align 8
  %16 = alloca i64, align 8
  %17 = alloca ptr, align 8
  %18 = alloca i32, align 4
  %19 = alloca i32, align 4
  store ptr %0, ptr %6, align 8, !tbaa !7
  store ptr %1, ptr %7, align 8, !tbaa !35
  store i64 %2, ptr %8, align 8, !tbaa !14
  store ptr %3, ptr %9, align 8, !tbaa !35
  call void @llvm.lifetime.start.p0(i64 4, ptr %10) #14
  call void @llvm.lifetime.start.p0(i64 4, ptr %11) #14
  call void @llvm.lifetime.start.p0(i64 8, ptr %12) #14
  call void @llvm.lifetime.start.p0(i64 8, ptr %13) #14
  %20 = load ptr, ptr %7, align 8, !tbaa !35
  %21 = load i64, ptr %20, align 8, !tbaa !14
  store i64 %21, ptr %13, align 8, !tbaa !14
  call void @llvm.lifetime.start.p0(i64 8, ptr %14) #14
  call void @llvm.lifetime.start.p0(i64 8, ptr %15) #14
  call void @llvm.lifetime.start.p0(i64 8, ptr %16) #14
  call void @llvm.lifetime.start.p0(i64 8, ptr %17) #14
  %22 = load i64, ptr %13, align 8, !tbaa !14
  %23 = load ptr, ptr %6, align 8, !tbaa !7
  %24 = call i64 @hash_bin(i64 noundef %22, ptr noundef %23)
  store i64 %24, ptr %12, align 8, !tbaa !14
  %25 = load i64, ptr %13, align 8, !tbaa !14
  store i64 %25, ptr %14, align 8, !tbaa !14
  store i64 -1, ptr %16, align 8, !tbaa !14
  %26 = load ptr, ptr %6, align 8, !tbaa !7
  %27 = getelementptr inbounds nuw %struct.parser_st_table, ptr %26, i32 0, i32 9
  %28 = load ptr, ptr %27, align 8, !tbaa !29
  store ptr %28, ptr %17, align 8, !tbaa !40
  br label %29

29:                                               ; preds = %125, %4
  %30 = load ptr, ptr %6, align 8, !tbaa !7
  %31 = getelementptr inbounds nuw %struct.parser_st_table, ptr %30, i32 0, i32 6
  %32 = load ptr, ptr %31, align 8, !tbaa !28
  %33 = load ptr, ptr %6, align 8, !tbaa !7
  %34 = call i32 @get_size_ind(ptr noundef %33)
  %35 = load i64, ptr %12, align 8, !tbaa !14
  %36 = call i64 @get_bin(ptr noundef %32, i32 noundef %34, i64 noundef %35)
  store i64 %36, ptr %15, align 8, !tbaa !14
  %37 = load i64, ptr %15, align 8, !tbaa !14
  %38 = icmp eq i64 %37, 0
  br i1 %38, label %39, label %55

39:                                               ; preds = %29
  %40 = load ptr, ptr %6, align 8, !tbaa !7
  %41 = getelementptr inbounds nuw %struct.parser_st_table, ptr %40, i32 0, i32 5
  %42 = load i64, ptr %41, align 8, !tbaa !32
  %43 = add i64 %42, 1
  store i64 %43, ptr %41, align 8, !tbaa !32
  store i64 -1, ptr %15, align 8, !tbaa !14
  %44 = load i64, ptr %16, align 8, !tbaa !14
  %45 = icmp ne i64 %44, -1
  br i1 %45, label %46, label %54

46:                                               ; preds = %39
  %47 = load i64, ptr %16, align 8, !tbaa !14
  store i64 %47, ptr %12, align 8, !tbaa !14
  %48 = load ptr, ptr %6, align 8, !tbaa !7
  %49 = getelementptr inbounds nuw %struct.parser_st_table, ptr %48, i32 0, i32 6
  %50 = load ptr, ptr %49, align 8, !tbaa !28
  %51 = load ptr, ptr %6, align 8, !tbaa !7
  %52 = call i32 @get_size_ind(ptr noundef %51)
  %53 = load i64, ptr %12, align 8, !tbaa !14
  call void @set_bin(ptr noundef %50, i32 noundef %52, i64 noundef %53, i64 noundef 0)
  br label %54

54:                                               ; preds = %46, %39
  br label %129

55:                                               ; preds = %29
  %56 = load i64, ptr %15, align 8, !tbaa !14
  %57 = icmp eq i64 %56, 1
  br i1 %57, label %118, label %58

58:                                               ; preds = %55
  br label %59

59:                                               ; preds = %58
  call void @llvm.lifetime.start.p0(i64 4, ptr %18) #14
  %60 = load ptr, ptr %6, align 8, !tbaa !7
  %61 = getelementptr inbounds nuw %struct.parser_st_table, ptr %60, i32 0, i32 3
  %62 = load i32, ptr %61, align 4, !tbaa !30
  store i32 %62, ptr %18, align 4, !tbaa !16
  %63 = load ptr, ptr %17, align 8, !tbaa !40
  %64 = load i64, ptr %15, align 8, !tbaa !14
  %65 = sub i64 %64, 2
  %66 = getelementptr %struct.parser_st_table_entry, ptr %63, i64 %65
  %67 = getelementptr inbounds nuw %struct.parser_st_table_entry, ptr %66, i32 0, i32 0
  %68 = load i64, ptr %67, align 8, !tbaa !41
  %69 = load i64, ptr %13, align 8, !tbaa !14
  %70 = icmp eq i64 %68, %69
  br i1 %70, label %71, label %97

71:                                               ; preds = %59
  %72 = load i64, ptr %8, align 8, !tbaa !14
  %73 = load ptr, ptr %17, align 8, !tbaa !40
  %74 = load i64, ptr %15, align 8, !tbaa !14
  %75 = sub i64 %74, 2
  %76 = getelementptr %struct.parser_st_table_entry, ptr %73, i64 %75
  %77 = getelementptr inbounds nuw %struct.parser_st_table_entry, ptr %76, i32 0, i32 1
  %78 = load i64, ptr %77, align 8, !tbaa !42
  %79 = icmp eq i64 %72, %78
  br i1 %79, label %95, label %80

80:                                               ; preds = %71
  %81 = load ptr, ptr %6, align 8, !tbaa !7
  %82 = getelementptr inbounds nuw %struct.parser_st_table, ptr %81, i32 0, i32 4
  %83 = load ptr, ptr %82, align 8, !tbaa !18
  %84 = getelementptr inbounds nuw %struct.parser_st_hash_type, ptr %83, i32 0, i32 0
  %85 = load ptr, ptr %84, align 8, !tbaa !43
  %86 = load i64, ptr %8, align 8, !tbaa !14
  %87 = load ptr, ptr %17, align 8, !tbaa !40
  %88 = load i64, ptr %15, align 8, !tbaa !14
  %89 = sub i64 %88, 2
  %90 = getelementptr %struct.parser_st_table_entry, ptr %87, i64 %89
  %91 = getelementptr inbounds nuw %struct.parser_st_table_entry, ptr %90, i32 0, i32 1
  %92 = load i64, ptr %91, align 8, !tbaa !42
  %93 = call i32 %85(i64 noundef %86, i64 noundef %92)
  %94 = icmp eq i32 %93, 0
  br label %95

95:                                               ; preds = %80, %71
  %96 = phi i1 [ true, %71 ], [ %94, %80 ]
  br label %97

97:                                               ; preds = %95, %59
  %98 = phi i1 [ false, %59 ], [ %96, %95 ]
  %99 = zext i1 %98 to i32
  store i32 %99, ptr %10, align 4, !tbaa !16
  %100 = load i32, ptr %18, align 4, !tbaa !16
  %101 = load ptr, ptr %6, align 8, !tbaa !7
  %102 = getelementptr inbounds nuw %struct.parser_st_table, ptr %101, i32 0, i32 3
  %103 = load i32, ptr %102, align 4, !tbaa !30
  %104 = icmp ne i32 %100, %103
  %105 = zext i1 %104 to i32
  store i32 %105, ptr %11, align 4, !tbaa !16
  call void @llvm.lifetime.end.p0(i64 4, ptr %18) #14
  br label %106

106:                                              ; preds = %97
  br label %107

107:                                              ; preds = %106
  %108 = load i32, ptr %11, align 4, !tbaa !16
  %109 = sext i32 %108 to i64
  %110 = call i64 @llvm.expect.i64(i64 %109, i64 0)
  %111 = icmp ne i64 %110, 0
  br i1 %111, label %112, label %113

112:                                              ; preds = %107
  store i64 -2, ptr %5, align 8
  store i32 1, ptr %19, align 4
  br label %133

113:                                              ; preds = %107
  %114 = load i32, ptr %10, align 4, !tbaa !16
  %115 = icmp ne i32 %114, 0
  br i1 %115, label %116, label %117

116:                                              ; preds = %113
  br label %129

117:                                              ; preds = %113
  br label %124

118:                                              ; preds = %55
  %119 = load i64, ptr %16, align 8, !tbaa !14
  %120 = icmp eq i64 %119, -1
  br i1 %120, label %121, label %123

121:                                              ; preds = %118
  %122 = load i64, ptr %12, align 8, !tbaa !14
  store i64 %122, ptr %16, align 8, !tbaa !14
  br label %123

123:                                              ; preds = %121, %118
  br label %124

124:                                              ; preds = %123, %117
  br label %125

125:                                              ; preds = %124
  %126 = load i64, ptr %12, align 8, !tbaa !14
  %127 = load ptr, ptr %6, align 8, !tbaa !7
  %128 = call i64 @secondary_hash(i64 noundef %126, ptr noundef %127, ptr noundef %14)
  store i64 %128, ptr %12, align 8, !tbaa !14
  br label %29

129:                                              ; preds = %116, %54
  %130 = load i64, ptr %12, align 8, !tbaa !14
  %131 = load ptr, ptr %9, align 8, !tbaa !35
  store i64 %130, ptr %131, align 8, !tbaa !14
  %132 = load i64, ptr %15, align 8, !tbaa !14
  store i64 %132, ptr %5, align 8
  store i32 1, ptr %19, align 4
  br label %133

133:                                              ; preds = %129, %112
  call void @llvm.lifetime.end.p0(i64 8, ptr %17) #14
  call void @llvm.lifetime.end.p0(i64 8, ptr %16) #14
  call void @llvm.lifetime.end.p0(i64 8, ptr %15) #14
  call void @llvm.lifetime.end.p0(i64 8, ptr %14) #14
  call void @llvm.lifetime.end.p0(i64 8, ptr %13) #14
  call void @llvm.lifetime.end.p0(i64 8, ptr %12) #14
  call void @llvm.lifetime.end.p0(i64 4, ptr %11) #14
  call void @llvm.lifetime.end.p0(i64 4, ptr %10) #14
  %134 = load i64, ptr %5, align 8
  ret i64 %134
}