; Function Attrs: nounwind sspstrong uwtable
define internal fastcc range(i64 2, 0) i64 @find_table_bin_ptr_and_reserve(ptr noundef captures(none) %0, i64 %.0.val, i64 noundef %1, ptr noundef nonnull writeonly captures(none) %2) unnamed_addr #0 {
  %4 = getelementptr i8, ptr %0, i64 1
  %.val = load i8, ptr %4, align 1, !tbaa !20
  %5 = zext nneg i8 %.val to i64
  %notmask.i.i = shl nsw i64 -1, %5
  %6 = xor i64 %notmask.i.i, -1
  %7 = and i64 %.0.val, %6
  %8 = getelementptr inbounds nuw i8, ptr %0, i64 48
  %9 = load ptr, ptr %8, align 8, !tbaa !25
  %10 = getelementptr inbounds nuw i8, ptr %0, i64 24
  %11 = getelementptr i8, ptr %0, i64 2
  %12 = getelementptr inbounds nuw i8, ptr %0, i64 4
  %13 = getelementptr inbounds nuw i8, ptr %0, i64 8
  br label %14

14:                                               ; preds = %.thread3, %3
  %.val4826 = phi i8 [ %.val, %3 ], [ %.val48, %.thread3 ]
  %.01 = phi i64 [ %.0.val, %3 ], [ %63, %.thread3 ]
  %.039 = phi i64 [ -1, %3 ], [ %.140, %.thread3 ]
  %.038 = phi i64 [ %7, %3 ], [ %69, %.thread3 ]
  %15 = load ptr, ptr %10, align 8, !tbaa !23
  %.val46 = load i8, ptr %11, align 2, !tbaa !22
  switch i8 %.val46, label %28 [
    i8 0, label %16
    i8 1, label %20
    i8 2, label %24
  ]

16:                                               ; preds = %14
  %17 = getelementptr i8, ptr %15, i64 %.038
  %18 = load i8, ptr %17, align 1, !tbaa !42
  %19 = zext i8 %18 to i64
  br label %get_bin.exit

20:                                               ; preds = %14
  %21 = getelementptr i16, ptr %15, i64 %.038
  %22 = load i16, ptr %21, align 2, !tbaa !43
  %23 = zext i16 %22 to i64
  br label %get_bin.exit

24:                                               ; preds = %14
  %25 = getelementptr i32, ptr %15, i64 %.038
  %26 = load i32, ptr %25, align 4, !tbaa !45
  %27 = zext i32 %26 to i64
  br label %get_bin.exit

28:                                               ; preds = %14
  %29 = getelementptr i64, ptr %15, i64 %.038
  %30 = load i64, ptr %29, align 8, !tbaa !46
  br label %get_bin.exit

get_bin.exit:                                     ; preds = %16, %20, %24, %28
  %31 = phi i64 [ %19, %16 ], [ %23, %20 ], [ %27, %24 ], [ %30, %28 ]
  switch i64 %31, label %45 [
    i64 0, label %32
    i64 1, label %61
  ]

32:                                               ; preds = %get_bin.exit
  %33 = getelementptr inbounds nuw i8, ptr %0, i64 16
  %34 = load i64, ptr %33, align 8, !tbaa !26
  %35 = add i64 %34, 1
  store i64 %35, ptr %33, align 8, !tbaa !26
  %.not45 = icmp eq i64 %.039, -1
  br i1 %.not45, label %set_bin.exit, label %36

36:                                               ; preds = %32
  switch i8 %.val46, label %43 [
    i8 0, label %37
    i8 1, label %39
    i8 2, label %41
  ]

37:                                               ; preds = %36
  %38 = getelementptr i8, ptr %15, i64 %.039
  store i8 0, ptr %38, align 1, !tbaa !42
  br label %set_bin.exit

39:                                               ; preds = %36
  %40 = getelementptr i16, ptr %15, i64 %.039
  store i16 0, ptr %40, align 2, !tbaa !43
  br label %set_bin.exit

41:                                               ; preds = %36
  %42 = getelementptr i32, ptr %15, i64 %.039
  store i32 0, ptr %42, align 4, !tbaa !45
  br label %set_bin.exit

43:                                               ; preds = %36
  %44 = getelementptr i64, ptr %15, i64 %.039
  store i64 0, ptr %44, align 8, !tbaa !46
  br label %set_bin.exit

45:                                               ; preds = %get_bin.exit
  %46 = load i32, ptr %12, align 4, !tbaa !27
  %47 = getelementptr %struct.parser_st_table_entry, ptr %9, i64 %31
  %48 = getelementptr i8, ptr %47, i64 -48
  %49 = load i64, ptr %48, align 8, !tbaa !32
  %50 = icmp eq i64 %49, %.0.val
  br i1 %50, label %51, label %.thread3

51:                                               ; preds = %45
  %52 = getelementptr i8, ptr %47, i64 -40
  %53 = load i64, ptr %52, align 8, !tbaa !34
  %54 = icmp eq i64 %1, %53
  br i1 %54, label %set_bin.exit, label %55

55:                                               ; preds = %51
  %56 = load ptr, ptr %13, align 8, !tbaa !7
  %57 = load ptr, ptr %56, align 8, !tbaa !36
  %58 = tail call i32 %57(i64 noundef %1, i64 noundef %53) #25
  %.pre = load i32, ptr %12, align 4, !tbaa !27
  %.not = icmp eq i32 %46, %.pre
  br i1 %.not, label %59, label %.loopexit, !prof !51

59:                                               ; preds = %55
  %60 = icmp eq i32 %58, 0
  br i1 %60, label %set_bin.exit, label %..thread3_crit_edge

..thread3_crit_edge:                              ; preds = %59
  %.val48.pre = load i8, ptr %4, align 1, !tbaa !20
  br label %.thread3

61:                                               ; preds = %get_bin.exit
  %62 = icmp eq i64 %.039, -1
  %spec.select = select i1 %62, i64 %.038, i64 %.039
  br label %.thread3

.thread3:                                         ; preds = %45, %..thread3_crit_edge, %61
  %.val48 = phi i8 [ %.val48.pre, %..thread3_crit_edge ], [ %.val4826, %61 ], [ %.val4826, %45 ]
  %.140 = phi i64 [ %.039, %..thread3_crit_edge ], [ %spec.select, %61 ], [ %.039, %45 ]
  %63 = lshr i64 %.01, 11
  %64 = mul i64 %.038, 5
  %65 = add nuw nsw i64 %63, 1
  %66 = add i64 %65, %64
  %67 = zext nneg i8 %.val48 to i64
  %notmask.i.i.i = shl nsw i64 -1, %67
  %68 = xor i64 %notmask.i.i.i, -1
  %69 = and i64 %66, %68
  br label %14

set_bin.exit:                                     ; preds = %51, %59, %43, %41, %39, %37, %32
  %.041 = phi i64 [ -1, %32 ], [ -1, %37 ], [ -1, %39 ], [ -1, %41 ], [ -1, %43 ], [ %31, %59 ], [ %31, %51 ]
  %.1 = phi i64 [ %.038, %32 ], [ %.039, %37 ], [ %.039, %39 ], [ %.039, %41 ], [ %.039, %43 ], [ %.038, %59 ], [ %.038, %51 ]
  store i64 %.1, ptr %2, align 8, !tbaa !46
  br label %.loopexit

.loopexit:                                        ; preds = %55, %set_bin.exit
  %.0 = phi i64 [ %.041, %set_bin.exit ], [ -2, %55 ]
  ret i64 %.0
}